target datalayout = "e-m:e-p270:32:32-p271:32:32-p272:64:64-i64:64-i128:128-f80:128-n8:16:32:64-S128"
target triple = "x86_64-pc-linux-gnu"

%struct.jpeg_decompress_struct = type { ptr, ptr, ptr, ptr, i32, i32, ptr, i32, i32, i32, i32, i32, i32, i32, double, i32, i32, i32, i32, i32, i32, i32, i32, i32, i32, i32, i32, i32, i32, i32, i32, i32, i32, ptr, i32, i32, i32, i32, i32, ptr, [4 x ptr], [4 x ptr], [4 x ptr], i32, ptr, i32, i32, [16 x i8], [16 x i8], [16 x i8], i32, i32, i8, i8, i8, i16, i16, i32, i8, i32, ptr, i32, i32, i32, i32, ptr, i32, [4 x ptr], i32, i32, i32, [10 x i32], i32, i32, i32, i32, i32, ptr, ptr, ptr, ptr, ptr, ptr, ptr, ptr, ptr, ptr, ptr }
%struct.jpeg_component_info = type { i32, i32, i32, i32, i32, i32, i32, i32, i32, i32, i32, i32, i32, i32, i32, i32, i32, i32, i32, ptr, ptr }
%struct.jpeg_memory_mgr = type { ptr, ptr, ptr, ptr, ptr, ptr, ptr, ptr, ptr, ptr, ptr, i64, i64 }
%struct.jpeg_compress_struct = type { ptr, ptr, ptr, ptr, i32, i32, ptr, i32, i32, i32, i32, double, i32, i32, i32, ptr, [4 x ptr], [4 x ptr], [4 x ptr], [16 x i8], [16 x i8], [16 x i8], i32, ptr, i32, i32, i32, i32, i32, i32, i32, i32, i32, i8, i8, i8, i16, i16, i32, i32, i32, i32, i32, i32, i32, [4 x ptr], i32, i32, i32, [10 x i32], i32, i32, i32, i32, ptr, ptr, ptr, ptr, ptr, ptr, ptr, ptr, ptr, ptr, i32 }

; Function Attrs: nounwind uwtable
define internal void @do_crop(ptr noundef %0, ptr noundef %1, i32 noundef %2, i32 noundef %3, ptr noundef %4, ptr noundef %5) #0 {
  %7 = alloca ptr, align 8
  %8 = alloca ptr, align 8
  %9 = alloca i32, align 4
  %10 = alloca i32, align 4
  %11 = alloca ptr, align 8
  %12 = alloca ptr, align 8
  %13 = alloca i32, align 4
  %14 = alloca i32, align 4
  %15 = alloca i32, align 4
  %16 = alloca i32, align 4
  %17 = alloca i32, align 4
  %18 = alloca ptr, align 8
  %19 = alloca ptr, align 8
  %20 = alloca ptr, align 8
  store ptr %0, ptr %7, align 8, !tbaa !31
  store ptr %1, ptr %8, align 8, !tbaa !97
  store i32 %2, ptr %9, align 4, !tbaa !28
  store i32 %3, ptr %10, align 4, !tbaa !28
  store ptr %4, ptr %11, align 8, !tbaa !91
  store ptr %5, ptr %12, align 8, !tbaa !91
  call void @llvm.lifetime.start.p0(i64 4, ptr %13) #6
  call void @llvm.lifetime.start.p0(i64 4, ptr %14) #6
  call void @llvm.lifetime.start.p0(i64 4, ptr %15) #6
  call void @llvm.lifetime.start.p0(i64 4, ptr %16) #6
  call void @llvm.lifetime.start.p0(i64 4, ptr %17) #6
  call void @llvm.lifetime.start.p0(i64 8, ptr %18) #6
  call void @llvm.lifetime.start.p0(i64 8, ptr %19) #6
  call void @llvm.lifetime.start.p0(i64 8, ptr %20) #6
  store i32 0, ptr %16, align 4, !tbaa !28
  br label %21

21:                                               ; preds = %119, %6
  %22 = load i32, ptr %16, align 4, !tbaa !28
  %23 = load ptr, ptr %8, align 8, !tbaa !97
  %24 = getelementptr inbounds nuw %struct.jpeg_compress_struct, ptr %23, i32 0, i32 13
  %25 = load i32, ptr %24, align 4, !tbaa !111
  %26 = icmp slt i32 %22, %25
  br i1 %26, label %27, label %122

27:                                               ; preds = %21
  %28 = load ptr, ptr %8, align 8, !tbaa !97
  %29 = getelementptr inbounds nuw %struct.jpeg_compress_struct, ptr %28, i32 0, i32 15
  %30 = load ptr, ptr %29, align 8, !tbaa !112
  %31 = load i32, ptr %16, align 4, !tbaa !28
  %32 = sext i32 %31 to i64
  %33 = getelementptr inbounds %struct.jpeg_component_info, ptr %30, i64 %32
  store ptr %33, ptr %20, align 8, !tbaa !4
  %34 = load i32, ptr %9, align 4, !tbaa !28
  %35 = load ptr, ptr %20, align 8, !tbaa !4
  %36 = getelementptr inbounds nuw %struct.jpeg_component_info, ptr %35, i32 0, i32 2
  %37 = load i32, ptr %36, align 8, !tbaa !80
  %38 = mul i32 %34, %37
  store i32 %38, ptr %14, align 4, !tbaa !28
  %39 = load i32, ptr %10, align 4, !tbaa !28
  %40 = load ptr, ptr %20, align 8, !tbaa !4
  %41 = getelementptr inbounds nuw %struct.jpeg_component_info, ptr %40, i32 0, i32 3
  %42 = load i32, ptr %41, align 4, !tbaa !82
  %43 = mul i32 %39, %42
  store i32 %43, ptr %15, align 4, !tbaa !28
  store i32 0, ptr %13, align 4, !tbaa !28
  br label %44

44:                                               ; preds = %112, %27
  %45 = load i32, ptr %13, align 4, !tbaa !28
  %46 = load ptr, ptr %20, align 8, !tbaa !4
  %47 = getelementptr inbounds nuw %struct.jpeg_component_info, ptr %46, i32 0, i32 8
  %48 = load i32, ptr %47, align 8, !tbaa !135
  %49 = icmp ult i32 %45, %48
  br i1 %49, label %50, label %118

50:                                               ; preds = %44
  %51 = load ptr, ptr %7, align 8, !tbaa !31
  %52 = getelementptr inbounds nuw %struct.jpeg_decompress_struct, ptr %51, i32 0, i32 1
  %53 = load ptr, ptr %52, align 8, !tbaa !88
  %54 = getelementptr inbounds nuw %struct.jpeg_memory_mgr, ptr %53, i32 0, i32 8
  %55 = load ptr, ptr %54, align 8, !tbaa !136
  %56 = load ptr, ptr %7, align 8, !tbaa !31
  %57 = load ptr, ptr %12, align 8, !tbaa !91
  %58 = load i32, ptr %16, align 4, !tbaa !28
  %59 = sext i32 %58 to i64
  %60 = getelementptr inbounds ptr, ptr %57, i64 %59
  %61 = load ptr, ptr %60, align 8, !tbaa !93
  %62 = load i32, ptr %13, align 4, !tbaa !28
  %63 = load ptr, ptr %20, align 8, !tbaa !4
  %64 = getelementptr inbounds nuw %struct.jpeg_component_info, ptr %63, i32 0, i32 3
  %65 = load i32, ptr %64, align 4, !tbaa !82
  %66 = call ptr %55(ptr noundef %56, ptr noundef %61, i32 noundef %62, i32 noundef %65, i32 noundef 1)
  store ptr %66, ptr %19, align 8, !tbaa !137
  %67 = load ptr, ptr %7, align 8, !tbaa !31
  %68 = getelementptr inbounds nuw %struct.jpeg_decompress_struct, ptr %67, i32 0, i32 1
  %69 = load ptr, ptr %68, align 8, !tbaa !88
  %70 = getelementptr inbounds nuw %struct.jpeg_memory_mgr, ptr %69, i32 0, i32 8
  %71 = load ptr, ptr %70, align 8, !tbaa !136
  %72 = load ptr, ptr %7, align 8, !tbaa !31
  %73 = load ptr, ptr %11, align 8, !tbaa !91
  %74 = load i32, ptr %16, align 4, !tbaa !28
  %75 = sext i32 %74 to i64
  %76 = getelementptr inbounds ptr, ptr %73, i64 %75
  %77 = load ptr, ptr %76, align 8, !tbaa !93
  %78 = load i32, ptr %13, align 4, !tbaa !28
  %79 = load i32, ptr %15, align 4, !tbaa !28
  %80 = add i32 %78, %79
  %81 = load ptr, ptr %20, align 8, !tbaa !4
  %82 = getelementptr inbounds nuw %struct.jpeg_component_info, ptr %81, i32 0, i32 3
  %83 = load i32, ptr %82, align 4, !tbaa !82
  %84 = call ptr %71(ptr noundef %72, ptr noundef %77, i32 noundef %80, i32 noundef %83, i32 noundef 0)
  store ptr %84, ptr %18, align 8, !tbaa !137
  store i32 0, ptr %17, align 4, !tbaa !28
  br label %85

85:                                               ; preds = %108, %50
  %86 = load i32, ptr %17, align 4, !tbaa !28
  %87 = load ptr, ptr %20, align 8, !tbaa !4
  %88 = getelementptr inbounds nuw %struct.jpeg_component_info, ptr %87, i32 0, i32 3
  %89 = load i32, ptr %88, align 4, !tbaa !82
  %90 = icmp slt i32 %86, %89
  br i1 %90, label %91, label %111

91:                                               ; preds = %85
  %92 = load ptr, ptr %18, align 8, !tbaa !137
  %93 = load i32, ptr %17, align 4, !tbaa !28
  %94 = sext i32 %93 to i64
  %95 = getelementptr inbounds ptr, ptr %92, i64 %94
  %96 = load ptr, ptr %95, align 8, !tbaa !19
  %97 = load i32, ptr %14, align 4, !tbaa !28
  %98 = zext i32 %97 to i64
  %99 = getelementptr inbounds nuw [64 x i16], ptr %96, i64 %98
  %100 = load ptr, ptr %19, align 8, !tbaa !137
  %101 = load i32, ptr %17, align 4, !tbaa !28
  %102 = sext i32 %101 to i64
  %103 = getelementptr inbounds ptr, ptr %100, i64 %102
  %104 = load ptr, ptr %103, align 8, !tbaa !19
  %105 = load ptr, ptr %20, align 8, !tbaa !4
  %106 = getelementptr inbounds nuw %struct.jpeg_component_info, ptr %105, i32 0, i32 7
  %107 = load i32, ptr %106, align 4, !tbaa !139
  call void @jcopy_block_row(ptr noundef %99, ptr noundef %104, i32 noundef %107)
  br label %108

108:                                              ; preds = %91
  %109 = load i32, ptr %17, align 4, !tbaa !28
  %110 = add nsw i32 %109, 1
  store i32 %110, ptr %17, align 4, !tbaa !28
  br label %85, !llvm.loop !160

111:                                              ; preds = %85
  br label %112

112:                                              ; preds = %111
  %113 = load ptr, ptr %20, align 8, !tbaa !4
  %114 = getelementptr inbounds nuw %struct.jpeg_component_info, ptr %113, i32 0, i32 3
  %115 = load i32, ptr %114, align 4, !tbaa !82
  %116 = load i32, ptr %13, align 4, !tbaa !28
  %117 = add i32 %116, %115
  store i32 %117, ptr %13, align 4, !tbaa !28
  br label %44, !llvm.loop !161

118:                                              ; preds = %44
  br label %119

119:                                              ; preds = %118
  %120 = load i32, ptr %16, align 4, !tbaa !28
  %121 = add nsw i32 %120, 1
  store i32 %121, ptr %16, align 4, !tbaa !28
  br label %21, !llvm.loop !162

122:                                              ; preds = %21
  call void @llvm.lifetime.end.p0(i64 8, ptr %20) #6
  call void @llvm.lifetime.end.p0(i64 8, ptr %19) #6
  call void @llvm.lifetime.end.p0(i64 8, ptr %18) #6
  call void @llvm.lifetime.end.p0(i64 4, ptr %17) #6
  call void @llvm.lifetime.end.p0(i64 4, ptr %16) #6
  call void @llvm.lifetime.end.p0(i64 4, ptr %15) #6
  call void @llvm.lifetime.end.p0(i64 4, ptr %14) #6
  call void @llvm.lifetime.end.p0(i64 4, ptr %13) #6
  ret void
}