; Function Attrs: nounwind uwtable
define internal fastcc void @do_crop(ptr noundef %0, ptr noundef readonly captures(none) %1, i32 noundef %2, i32 noundef %3, ptr noundef readonly captures(none) %4, ptr noundef readonly captures(none) %5) unnamed_addr #2 {
  %7 = getelementptr inbounds nuw i8, ptr %1, i64 76
  %8 = load i32, ptr %7, align 4, !tbaa !103
  %9 = icmp sgt i32 %8, 0
  br i1 %9, label %.lr.ph44, label %._crit_edge45

.lr.ph44:                                         ; preds = %6
  %10 = getelementptr inbounds nuw i8, ptr %1, i64 88
  %11 = getelementptr inbounds nuw i8, ptr %0, i64 8
  br label %12

12:                                               ; preds = %.lr.ph44, %._crit_edge41
  %13 = phi i32 [ %8, %.lr.ph44 ], [ %57, %._crit_edge41 ]
  %indvars.iv48 = phi i64 [ 0, %.lr.ph44 ], [ %indvars.iv.next49, %._crit_edge41 ]
  %14 = load ptr, ptr %10, align 8, !tbaa !104
  %15 = getelementptr inbounds nuw %struct.jpeg_component_info, ptr %14, i64 %indvars.iv48
  %16 = getelementptr inbounds nuw i8, ptr %15, i64 12
  %17 = load i32, ptr %16, align 4, !tbaa !77
  %18 = mul i32 %17, %3
  %19 = getelementptr inbounds nuw i8, ptr %15, i64 32
  %20 = load i32, ptr %19, align 8, !tbaa !117
  %.not = icmp eq i32 %20, 0
  br i1 %.not, label %._crit_edge41, label %.lr.ph40

.lr.ph40:                                         ; preds = %12
  %21 = getelementptr inbounds nuw i8, ptr %15, i64 8
  %22 = load i32, ptr %21, align 8, !tbaa !75
  %23 = mul i32 %22, %2
  %24 = getelementptr inbounds nuw ptr, ptr %5, i64 %indvars.iv48
  %25 = getelementptr inbounds nuw ptr, ptr %4, i64 %indvars.iv48
  %26 = zext i32 %23 to i64
  %27 = getelementptr inbounds nuw i8, ptr %15, i64 28
  br label %28

28:                                               ; preds = %.lr.ph40, %._crit_edge
  %29 = phi i32 [ %17, %.lr.ph40 ], [ %53, %._crit_edge ]
  %.038 = phi i32 [ 0, %.lr.ph40 ], [ %54, %._crit_edge ]
  %30 = load ptr, ptr %11, align 8, !tbaa !83
  %31 = getelementptr inbounds nuw i8, ptr %30, i64 64
  %32 = load ptr, ptr %31, align 8, !tbaa !118
  %33 = load ptr, ptr %24, align 8, !tbaa !87
  %34 = tail call ptr %32(ptr noundef %0, ptr noundef %33, i32 noundef %.038, i32 noundef %29, i32 noundef 1) #8
  %35 = load ptr, ptr %11, align 8, !tbaa !83
  %36 = getelementptr inbounds nuw i8, ptr %35, i64 64
  %37 = load ptr, ptr %36, align 8, !tbaa !118
  %38 = load ptr, ptr %25, align 8, !tbaa !87
  %39 = add i32 %.038, %18
  %40 = load i32, ptr %16, align 4, !tbaa !77
  %41 = tail call ptr %37(ptr noundef %0, ptr noundef %38, i32 noundef %39, i32 noundef %40, i32 noundef 0) #8
  %42 = load i32, ptr %16, align 4, !tbaa !77
  %43 = icmp sgt i32 %42, 0
  br i1 %43, label %.lr.ph, label %._crit_edge

.lr.ph:                                           ; preds = %28, %.lr.ph
  %indvars.iv = phi i64 [ %indvars.iv.next, %.lr.ph ], [ 0, %28 ]
  %44 = getelementptr inbounds nuw ptr, ptr %41, i64 %indvars.iv
  %45 = load ptr, ptr %44, align 8, !tbaa !16
  %46 = getelementptr inbounds nuw [64 x i16], ptr %45, i64 %26
  %47 = getelementptr inbounds nuw ptr, ptr %34, i64 %indvars.iv
  %48 = load ptr, ptr %47, align 8, !tbaa !16
  %49 = load i32, ptr %27, align 4, !tbaa !119
  tail call void @jcopy_block_row(ptr noundef %46, ptr noundef %48, i32 noundef %49) #8
  %indvars.iv.next = add nuw nsw i64 %indvars.iv, 1
  %50 = load i32, ptr %16, align 4, !tbaa !77
  %51 = sext i32 %50 to i64
  %52 = icmp slt i64 %indvars.iv.next, %51
  br i1 %52, label %.lr.ph, label %._crit_edge, !llvm.loop !236

._crit_edge:                                      ; preds = %.lr.ph, %28
  %53 = phi i32 [ %42, %28 ], [ %50, %.lr.ph ]
  %54 = add i32 %53, %.038
  %55 = load i32, ptr %19, align 8, !tbaa !117
  %56 = icmp ult i32 %54, %55
  br i1 %56, label %28, label %._crit_edge41.loopexit, !llvm.loop !237

._crit_edge41.loopexit:                           ; preds = %._crit_edge
  %.pre = load i32, ptr %7, align 4, !tbaa !103
  br label %._crit_edge41

._crit_edge41:                                    ; preds = %._crit_edge41.loopexit, %12
  %57 = phi i32 [ %.pre, %._crit_edge41.loopexit ], [ %13, %12 ]
  %indvars.iv.next49 = add nuw nsw i64 %indvars.iv48, 1
  %58 = sext i32 %57 to i64
  %59 = icmp slt i64 %indvars.iv.next49, %58
  br i1 %59, label %12, label %._crit_edge45, !llvm.loop !238

._crit_edge45:                                    ; preds = %._crit_edge41, %6
  ret void
}